Certificate:
    Data:
        Version: 3 (0x2)
        Serial Number:
            e3:00:24:0e:b0:2e:43:49
        Signature Algorithm: sha1WithRSAEncryption
        Issuer: C=JP, ST=Tokyo, O=KONICA MINOLTA MEDICAL AND GRAPHIC, INC., CN=mi-supportkonicaminolta.jp/emailAddress=sims-support@pub.konicaminolta.jp
        Validity
            Not Before: Mar 30 04:47:23 2011 GMT
            Not After : Mar 22 04:47:23 2041 GMT
        Subject: C=JP, ST=Tokyo, O=KONICA MINOLTA MEDICAL AND GRAPHIC, INC., CN=mi-supportkonicaminolta.jp/emailAddress=sims-support@pub.konicaminolta.jp
        Subject Public Key Info:
            Public Key Algorithm: rsaEncryption
            RSA Public Key: (1024 bit)
                Modulus (1024 bit):
                    00:d7:8d:c6:8f:af:57:25:3e:ec:04:c8:5f:2b:5d:
                    74:91:a4:55:96:46:f9:3a:c6:e9:7f:56:7c:21:9d:
                    58:9e:9d:ec:ea:a4:78:c8:67:ee:ff:8b:56:8f:78:
                    42:ab:37:60:54:d1:79:d2:c2:fa:25:c5:58:18:81:
                    94:71:37:09:62:f3:76:ca:eb:ce:4b:8a:aa:7d:1d:
                    99:8c:ff:f8:51:c3:c4:6e:3f:b3:20:58:79:af:88:
                    3c:b8:42:f9:67:bf:b9:52:81:ed:1b:25:3c:cd:46:
                    a9:f5:99:f1:f0:06:34:d9:4c:07:c5:61:39:40:56:
                    3c:84:88:e6:0b:b8:1a:8f:2f
                Exponent: 65537 (0x10001)
        X509v3 extensions:
            X509v3 Subject Key Identifier: 
                B3:49:E0:AE:99:D7:3B:4A:62:25:66:10:C1:CE:72:70:B3:04:65:54
            X509v3 Authority Key Identifier: 
                keyid:B3:49:E0:AE:99:D7:3B:4A:62:25:66:10:C1:CE:72:70:B3:04:65:54
                DirName:/C=JP/ST=Tokyo/O=KONICA MINOLTA MEDICAL AND GRAPHIC, INC./CN=mi-supportkonicaminolta.jp/emailAddress=sims-support@pub.konicaminolta.jp
                serial:E3:00:24:0E:B0:2E:43:49

            X509v3 Basic Constraints: 
                CA:TRUE
    Signature Algorithm: sha1WithRSAEncryption
        78:12:40:71:e8:ed:a3:a9:af:47:41:cf:e0:f1:15:5a:ec:72:
        d8:22:de:53:a3:2d:61:60:f9:56:74:24:7a:47:30:27:8c:84:
        75:64:83:46:96:d5:5d:9e:1c:6e:b1:c1:d1:1c:a1:3a:af:1c:
        06:d9:cf:9a:28:92:90:a5:c0:3b:ec:68:57:2b:97:b7:50:36:
        4a:d0:6f:de:c1:cf:a4:97:c8:87:e5:4d:37:6f:44:b4:5e:41:
        bf:33:79:d5:40:2d:23:c2:88:84:e5:94:98:67:c8:7e:64:a2:
        9b:54:53:04:d1:23:ef:ea:27:7e:db:70:88:a2:69:35:75:63:
        8a:7e
-----BEGIN CERTIFICATE-----
MIID4DCCA0mgAwIBAgIJAOMAJA6wLkNJMA0GCSqGSIb3DQEBBQUAMIGnMQswCQYD
VQQGEwJKUDEOMAwGA1UECBMFVG9reW8xMTAvBgNVBAoTKEtPTklDQSBNSU5PTFRB
IE1FRElDQUwgQU5EIEdSQVBISUMsIElOQy4xIzAhBgNVBAMTGm1pLXN1cHBvcnRr
b25pY2FtaW5vbHRhLmpwMTAwLgYJKoZIhvcNAQkBFiFzaW1zLXN1cHBvcnRAcHVi
LmtvbmljYW1pbm9sdGEuanAwHhcNMTEwMzMwMDQ0NzIzWhcNNDEwMzIyMDQ0NzIz
WjCBpzELMAkGA1UEBhMCSlAxDjAMBgNVBAgTBVRva3lvMTEwLwYDVQQKEyhLT05J
Q0EgTUlOT0xUQSBNRURJQ0FMIEFORCBHUkFQSElDLCBJTkMuMSMwIQYDVQQDExpt
aS1zdXBwb3J0a29uaWNhbWlub2x0YS5qcDEwMC4GCSqGSIb3DQEJARYhc2ltcy1z
dXBwb3J0QHB1Yi5rb25pY2FtaW5vbHRhLmpwMIGfMA0GCSqGSIb3DQEBAQUAA4GN
ADCBiQKBgQDXjcaPr1clPuwEyF8rXXSRpFWWRvk6xul/VnwhnVienezqpHjIZ+7/
i1aPeEKrN2BU0XnSwvolxVgYgZRxNwli83bK685Liqp9HZmM//hRw8RuP7MgWHmv
iDy4Qvlnv7lSge0bJTzNRqn1mfHwBjTZTAfFYTlAVjyEiOYLuBqPLwIDAQABo4IB
EDCCAQwwHQYDVR0OBBYEFLNJ4K6Z1ztKYiVmEMHOcnCzBGVUMIHcBgNVHSMEgdQw
gdGAFLNJ4K6Z1ztKYiVmEMHOcnCzBGVUoYGtpIGqMIGnMQswCQYDVQQGEwJKUDEO
MAwGA1UECBMFVG9reW8xMTAvBgNVBAoTKEtPTklDQSBNSU5PTFRBIE1FRElDQUwg
QU5EIEdSQVBISUMsIElOQy4xIzAhBgNVBAMTGm1pLXN1cHBvcnRrb25pY2FtaW5v
bHRhLmpwMTAwLgYJKoZIhvcNAQkBFiFzaW1zLXN1cHBvcnRAcHViLmtvbmljYW1p
bm9sdGEuanCCCQDjACQOsC5DSTAMBgNVHRMEBTADAQH/MA0GCSqGSIb3DQEBBQUA
A4GBAHgSQHHo7aOpr0dBz+DxFVrsctgi3lOjLWFg+VZ0JHpHMCeMhHVkg0aW1V2e
HG6xwdEcoTqvHAbZz5ookpClwDvsaFcrl7dQNkrQb97Bz6SXyIflTTdvRLReQb8z
edVALSPCiITllJhnyH5koptUUwTRI+/qJ37bcIiiaTV1Y4p+
-----END CERTIFICATE-----
